target datalayout = "e-m:e-p270:32:32-p271:32:32-p272:64:64-i64:64-i128:128-f80:128-n8:16:32:64-S128"
target triple = "x86_64-pc-linux-gnu"

%"class.duckdb_re2::Regexp" = type { i8, i8, i16, i16, i16, %union.anon, ptr, %union.anon.0 }
%union.anon = type { ptr }
%union.anon.0 = type { %struct.anon.1 }
%struct.anon.1 = type { i32, ptr }

@_ZN10duckdb_re26RegexpC1ENS_8RegexpOpENS0_10ParseFlagsE = hidden unnamed_addr alias void (ptr, i32, i32), ptr @_ZN10duckdb_re26RegexpC2ENS_8RegexpOpENS0_10ParseFlagsE

; Function Attrs: mustprogress nounwind uwtable
define linkonce_odr hidden noundef ptr @_ZN10duckdb_re26Regexp3subEv(ptr noundef nonnull align 8 dereferenceable(40) %0) #0 comdat align 2 {
  %2 = alloca ptr, align 8
  %3 = alloca ptr, align 8
  store ptr %0, ptr %3, align 8, !tbaa !3
  %4 = load ptr, ptr %3, align 8
  %5 = getelementptr inbounds nuw %"class.duckdb_re2::Regexp", ptr %4, i32 0, i32 4
  %6 = load i16, ptr %5, align 2, !tbaa !18
  %7 = zext i16 %6 to i32
  %8 = icmp sle i32 %7, 1
  br i1 %8, label %9, label %11

9:                                                ; preds = %1
  %10 = getelementptr inbounds nuw %"class.duckdb_re2::Regexp", ptr %4, i32 0, i32 5
  store ptr %10, ptr %2, align 8
  br label %14

11:                                               ; preds = %1
  %12 = getelementptr inbounds nuw %"class.duckdb_re2::Regexp", ptr %4, i32 0, i32 5
  %13 = load ptr, ptr %12, align 8, !tbaa !20
  store ptr %13, ptr %2, align 8
  br label %14

14:                                               ; preds = %11, %9
  %15 = load ptr, ptr %2, align 8
  ret ptr %15
}

; Function Attrs: mustprogress uwtable
define linkonce_odr hidden void @_ZN10duckdb_re26Regexp8AllocSubEi(ptr noundef nonnull align 8 dereferenceable(40) %0, i32 noundef %1) #4 comdat align 2 {
  %3 = alloca ptr, align 8
  %4 = alloca i32, align 4
  store ptr %0, ptr %3, align 8, !tbaa !3
  store i32 %1, ptr %4, align 4, !tbaa !29
  %5 = load ptr, ptr %3, align 8
  %6 = load i32, ptr %4, align 4, !tbaa !29
  %7 = icmp sgt i32 %6, 1
  br i1 %7, label %8, label %17

8:                                                ; preds = %2
  %9 = load i32, ptr %4, align 4, !tbaa !29
  %10 = sext i32 %9 to i64
  %11 = call { i64, i1 } @llvm.umul.with.overflow.i64(i64 %10, i64 8)
  %12 = extractvalue { i64, i1 } %11, 1
  %13 = extractvalue { i64, i1 } %11, 0
  %14 = select i1 %12, i64 -1, i64 %13
  %15 = call noalias noundef nonnull ptr @_Znam(i64 noundef %14) #22
  %16 = getelementptr inbounds nuw %"class.duckdb_re2::Regexp", ptr %5, i32 0, i32 5
  store ptr %15, ptr %16, align 8, !tbaa !20
  br label %17

17:                                               ; preds = %8, %2
  %18 = load i32, ptr %4, align 4, !tbaa !29
  %19 = trunc i32 %18 to i16
  %20 = getelementptr inbounds nuw %"class.duckdb_re2::Regexp", ptr %5, i32 0, i32 4
  store i16 %19, ptr %20, align 2, !tbaa !18
  ret void
}

; Function Attrs: mustprogress nounwind uwtable
define linkonce_odr hidden noundef i32 @_ZN10duckdb_re26Regexp11parse_flagsEv(ptr noundef nonnull align 8 dereferenceable(40) %0) #0 comdat align 2 {
  %2 = alloca ptr, align 8
  store ptr %0, ptr %2, align 8, !tbaa !3
  %3 = load ptr, ptr %2, align 8
  %4 = getelementptr inbounds nuw %"class.duckdb_re2::Regexp", ptr %3, i32 0, i32 2
  %5 = load i16, ptr %4, align 2, !tbaa !16
  %6 = zext i16 %5 to i32
  ret i32 %6
}

; Function Attrs: mustprogress nounwind uwtable
define linkonce_odr hidden noundef i32 @_ZN10duckdb_re26Regexp2opEv(ptr noundef nonnull align 8 dereferenceable(40) %0) #0 comdat align 2 {
  %2 = alloca ptr, align 8
  store ptr %0, ptr %2, align 8, !tbaa !3
  %3 = load ptr, ptr %2, align 8
  %4 = getelementptr inbounds nuw %"class.duckdb_re2::Regexp", ptr %3, i32 0, i32 0
  %5 = load i8, ptr %4, align 8, !tbaa !12
  %6 = zext i8 %5 to i32
  ret i32 %6
}

; Function Attrs: mustprogress uwtable
define hidden noundef ptr @_ZN10duckdb_re26Regexp15StarPlusOrQuestENS_8RegexpOpEPS0_NS0_10ParseFlagsE(i32 noundef %0, ptr noundef %1, i32 noundef %2) #4 align 2 personality ptr @__gxx_personality_v0 {
  %4 = alloca ptr, align 8
  %5 = alloca i32, align 4
  %6 = alloca ptr, align 8
  %7 = alloca i32, align 4
  %8 = alloca ptr, align 8
  %9 = alloca ptr, align 8
  %10 = alloca i32, align 4
  %11 = alloca ptr, align 8
  store i32 %0, ptr %5, align 4, !tbaa !8
  store ptr %1, ptr %6, align 8, !tbaa !3
  store i32 %2, ptr %7, align 4, !tbaa !10
  %12 = load i32, ptr %5, align 4, !tbaa !8
  %13 = load ptr, ptr %6, align 8, !tbaa !3
  %14 = call noundef i32 @_ZN10duckdb_re26Regexp2opEv(ptr noundef nonnull align 8 dereferenceable(40) %13)
  %15 = icmp eq i32 %12, %14
  br i1 %15, label %16, label %23

16:                                               ; preds = %3
  %17 = load i32, ptr %7, align 4, !tbaa !10
  %18 = load ptr, ptr %6, align 8, !tbaa !3
  %19 = call noundef i32 @_ZN10duckdb_re26Regexp11parse_flagsEv(ptr noundef nonnull align 8 dereferenceable(40) %18)
  %20 = icmp eq i32 %17, %19
  br i1 %20, label %21, label %23

21:                                               ; preds = %16
  %22 = load ptr, ptr %6, align 8, !tbaa !3
  store ptr %22, ptr %4, align 8
  br label %80

23:                                               ; preds = %16, %3
  %24 = load ptr, ptr %6, align 8, !tbaa !3
  %25 = call noundef i32 @_ZN10duckdb_re26Regexp2opEv(ptr noundef nonnull align 8 dereferenceable(40) %24)
  %26 = icmp eq i32 %25, 7
  br i1 %26, label %35, label %27

27:                                               ; preds = %23
  %28 = load ptr, ptr %6, align 8, !tbaa !3
  %29 = call noundef i32 @_ZN10duckdb_re26Regexp2opEv(ptr noundef nonnull align 8 dereferenceable(40) %28)
  %30 = icmp eq i32 %29, 8
  br i1 %30, label %35, label %31

31:                                               ; preds = %27
  %32 = load ptr, ptr %6, align 8, !tbaa !3
  %33 = call noundef i32 @_ZN10duckdb_re26Regexp2opEv(ptr noundef nonnull align 8 dereferenceable(40) %32)
  %34 = icmp eq i32 %33, 9
  br i1 %34, label %35, label %65

35:                                               ; preds = %31, %27, %23
  %36 = load i32, ptr %7, align 4, !tbaa !10
  %37 = load ptr, ptr %6, align 8, !tbaa !3
  %38 = call noundef i32 @_ZN10duckdb_re26Regexp11parse_flagsEv(ptr noundef nonnull align 8 dereferenceable(40) %37)
  %39 = icmp eq i32 %36, %38
  br i1 %39, label %40, label %65

40:                                               ; preds = %35
  %41 = load ptr, ptr %6, align 8, !tbaa !3
  %42 = call noundef i32 @_ZN10duckdb_re26Regexp2opEv(ptr noundef nonnull align 8 dereferenceable(40) %41)
  %43 = icmp eq i32 %42, 7
  br i1 %43, label %44, label %46

44:                                               ; preds = %40
  %45 = load ptr, ptr %6, align 8, !tbaa !3
  store ptr %45, ptr %4, align 8
  br label %80

46:                                               ; preds = %40
  call void @llvm.lifetime.start.p0(i64 8, ptr %8) #18
  %47 = call noalias noundef nonnull ptr @_Znwm(i64 noundef 40) #22
  %48 = load i32, ptr %7, align 4, !tbaa !10
  invoke void @_ZN10duckdb_re26RegexpC1ENS_8RegexpOpENS0_10ParseFlagsE(ptr noundef nonnull align 8 dereferenceable(40) %47, i32 noundef 7, i32 noundef %48)
          to label %49 unwind label %61

49:                                               ; preds = %46
  store ptr %47, ptr %8, align 8, !tbaa !3
  %50 = load ptr, ptr %8, align 8, !tbaa !3
  call void @_ZN10duckdb_re26Regexp8AllocSubEi(ptr noundef nonnull align 8 dereferenceable(40) %50, i32 noundef 1)
  %51 = load ptr, ptr %6, align 8, !tbaa !3
  %52 = call noundef ptr @_ZN10duckdb_re26Regexp3subEv(ptr noundef nonnull align 8 dereferenceable(40) %51)
  %53 = getelementptr inbounds ptr, ptr %52, i64 0
  %54 = load ptr, ptr %53, align 8, !tbaa !3
  %55 = call noundef ptr @_ZN10duckdb_re26Regexp6IncrefEv(ptr noundef nonnull align 8 dereferenceable(40) %54)
  %56 = load ptr, ptr %8, align 8, !tbaa !3
  %57 = call noundef ptr @_ZN10duckdb_re26Regexp3subEv(ptr noundef nonnull align 8 dereferenceable(40) %56)
  %58 = getelementptr inbounds ptr, ptr %57, i64 0
  store ptr %55, ptr %58, align 8, !tbaa !3
  %59 = load ptr, ptr %6, align 8, !tbaa !3
  call void @_ZN10duckdb_re26Regexp6DecrefEv(ptr noundef nonnull align 8 dereferenceable(40) %59)
  %60 = load ptr, ptr %8, align 8, !tbaa !3
  store ptr %60, ptr %4, align 8
  call void @llvm.lifetime.end.p0(i64 8, ptr %8) #18
  br label %80

61:                                               ; preds = %46
  %62 = landingpad { ptr, i32 }
          cleanup
  %63 = extractvalue { ptr, i32 } %62, 0
  store ptr %63, ptr %9, align 8
  %64 = extractvalue { ptr, i32 } %62, 1
  store i32 %64, ptr %10, align 4
  call void @_ZdlPv(ptr noundef %47) #19
  call void @llvm.lifetime.end.p0(i64 8, ptr %8) #18
  br label %82

65:                                               ; preds = %35, %31
  call void @llvm.lifetime.start.p0(i64 8, ptr %11) #18
  %66 = call noalias noundef nonnull ptr @_Znwm(i64 noundef 40) #22
  %67 = load i32, ptr %5, align 4, !tbaa !8
  %68 = load i32, ptr %7, align 4, !tbaa !10
  invoke void @_ZN10duckdb_re26RegexpC1ENS_8RegexpOpENS0_10ParseFlagsE(ptr noundef nonnull align 8 dereferenceable(40) %66, i32 noundef %67, i32 noundef %68)
          to label %69 unwind label %76

69:                                               ; preds = %65
  store ptr %66, ptr %11, align 8, !tbaa !3
  %70 = load ptr, ptr %11, align 8, !tbaa !3
  call void @_ZN10duckdb_re26Regexp8AllocSubEi(ptr noundef nonnull align 8 dereferenceable(40) %70, i32 noundef 1)
  %71 = load ptr, ptr %6, align 8, !tbaa !3
  %72 = load ptr, ptr %11, align 8, !tbaa !3
  %73 = call noundef ptr @_ZN10duckdb_re26Regexp3subEv(ptr noundef nonnull align 8 dereferenceable(40) %72)
  %74 = getelementptr inbounds ptr, ptr %73, i64 0
  store ptr %71, ptr %74, align 8, !tbaa !3
  %75 = load ptr, ptr %11, align 8, !tbaa !3
  store ptr %75, ptr %4, align 8
  call void @llvm.lifetime.end.p0(i64 8, ptr %11) #18
  br label %80

76:                                               ; preds = %65
  %77 = landingpad { ptr, i32 }
          cleanup
  %78 = extractvalue { ptr, i32 } %77, 0
  store ptr %78, ptr %9, align 8
  %79 = extractvalue { ptr, i32 } %77, 1
  store i32 %79, ptr %10, align 4
  call void @_ZdlPv(ptr noundef %66) #19
  call void @llvm.lifetime.end.p0(i64 8, ptr %11) #18
  br label %82

80:                                               ; preds = %69, %49, %44, %21
  %81 = load ptr, ptr %4, align 8
  ret ptr %81

82:                                               ; preds = %76, %61
  %83 = load ptr, ptr %9, align 8
  %84 = load i32, ptr %10, align 4
  %85 = insertvalue { ptr, i32 } poison, ptr %83, 0
  %86 = insertvalue { ptr, i32 } %85, i32 %84, 1
  resume { ptr, i32 } %86
}