; Function Attrs: mustprogress uwtable
define hidden noundef ptr @_ZN10duckdb_re26Regexp15StarPlusOrQuestENS_8RegexpOpEPS0_NS0_10ParseFlagsE(i32 noundef %0, ptr noundef %1, i32 noundef %2) local_unnamed_addr #7 align 2 personality ptr @__gxx_personality_v0 {
  %4 = load i8, ptr %1, align 8, !tbaa !3
  %5 = zext i8 %4 to i32
  %6 = icmp eq i32 %0, %5
  br i1 %6, label %7, label %12

7:                                                ; preds = %3
  %8 = getelementptr inbounds nuw i8, ptr %1, i64 2
  %9 = load i16, ptr %8, align 2, !tbaa !11
  %10 = zext i16 %9 to i32
  %11 = icmp eq i32 %2, %10
  br i1 %11, label %.thread31, label %12

12:                                               ; preds = %7, %3
  %13 = icmp eq i8 %4, 7
  br i1 %13, label %.thread, label %14

14:                                               ; preds = %12
  %15 = and i32 %5, 254
  %switch = icmp eq i32 %15, 8
  br i1 %switch, label %16, label %41

16:                                               ; preds = %14
  %17 = getelementptr inbounds nuw i8, ptr %1, i64 2
  %18 = load i16, ptr %17, align 2, !tbaa !11
  %19 = zext i16 %18 to i32
  %20 = icmp eq i32 %2, %19
  br i1 %20, label %25, label %41

.thread:                                          ; preds = %12
  %21 = getelementptr inbounds nuw i8, ptr %1, i64 2
  %22 = load i16, ptr %21, align 2, !tbaa !11
  %23 = zext i16 %22 to i32
  %24 = icmp eq i32 %2, %23
  br i1 %24, label %.thread31, label %41

25:                                               ; preds = %16
  %26 = tail call noalias noundef nonnull dereferenceable(40) ptr @_Znwm(i64 noundef 40) #31
  store i8 7, ptr %26, align 8, !tbaa !3
  %27 = getelementptr inbounds nuw i8, ptr %26, i64 1
  store i8 0, ptr %27, align 1, !tbaa !10
  %28 = getelementptr inbounds nuw i8, ptr %26, i64 2
  %29 = trunc i32 %2 to i16
  store i16 %29, ptr %28, align 2, !tbaa !11
  %30 = getelementptr inbounds nuw i8, ptr %26, i64 4
  store i16 1, ptr %30, align 4, !tbaa !12
  %31 = getelementptr inbounds nuw i8, ptr %26, i64 6
  %32 = getelementptr inbounds nuw i8, ptr %26, i64 16
  tail call void @llvm.memset.p0.i64(ptr noundef nonnull align 2 dereferenceable(34) %32, i8 0, i64 24, i1 false)
  store i16 1, ptr %31, align 2, !tbaa !13
  %33 = getelementptr inbounds nuw i8, ptr %1, i64 6
  %34 = load i16, ptr %33, align 2, !tbaa !13
  %35 = icmp ult i16 %34, 2
  %36 = getelementptr inbounds nuw i8, ptr %1, i64 8
  %37 = load ptr, ptr %36, align 8
  %.0.i = select i1 %35, ptr %36, ptr %37
  %38 = load ptr, ptr %.0.i, align 8, !tbaa !41
  %39 = tail call noundef ptr @_ZN10duckdb_re26Regexp6IncrefEv(ptr noundef nonnull align 8 dereferenceable(40) %38)
  %40 = getelementptr inbounds nuw i8, ptr %26, i64 8
  store ptr %38, ptr %40, align 8, !tbaa !41
  tail call void @_ZN10duckdb_re26Regexp6DecrefEv(ptr noundef nonnull align 8 dereferenceable(40) %1)
  br label %.thread31

41:                                               ; preds = %14, %.thread, %16
  %42 = tail call noalias noundef nonnull dereferenceable(40) ptr @_Znwm(i64 noundef 40) #31
  %43 = trunc i32 %0 to i8
  store i8 %43, ptr %42, align 8, !tbaa !3
  %44 = getelementptr inbounds nuw i8, ptr %42, i64 1
  store i8 0, ptr %44, align 1, !tbaa !10
  %45 = getelementptr inbounds nuw i8, ptr %42, i64 2
  %46 = trunc i32 %2 to i16
  store i16 %46, ptr %45, align 2, !tbaa !11
  %47 = getelementptr inbounds nuw i8, ptr %42, i64 4
  store i16 1, ptr %47, align 4, !tbaa !12
  %48 = getelementptr inbounds nuw i8, ptr %42, i64 6
  %49 = getelementptr inbounds nuw i8, ptr %42, i64 16
  tail call void @llvm.memset.p0.i64(ptr noundef nonnull align 2 dereferenceable(34) %49, i8 0, i64 24, i1 false)
  store i16 1, ptr %48, align 2, !tbaa !13
  %50 = getelementptr inbounds nuw i8, ptr %42, i64 8
  store ptr %1, ptr %50, align 8, !tbaa !41
  br label %.thread31

.thread31:                                        ; preds = %.thread, %7, %41, %25
  %.0 = phi ptr [ %26, %25 ], [ %42, %41 ], [ %1, %7 ], [ %1, %.thread ]
  ret ptr %.0
}